(lp1
(I1000
I429
tp2
a(I2000
I861
tp3
a(I3000
I1289
tp4
a(I4000
I1741
tp5
a(I5000
I2184
tp6
a(I6000
I2636
tp7
a(I7000
I3076
tp8
a(I8000
I3537
tp9
a(I9000
I4009
tp10
a(I10000
I4453
tp11
a(I11000
I4934
tp12
a(I12000
I5390
tp13
a(I13000
I5880
tp14
a(I14000
I6395
tp15
a(I15000
I6910
tp16
a(I16000
I7463
tp17
a(I17000
I8035
tp18
a(I18000
I8617
tp19
a(I19000
I9214
tp20
a(I20000
I9812
tp21
a(I21000
I10405
tp22
a(I22000
I11044
tp23
a(I23000
I11666
tp24
a(I24000
I12330
tp25
a(I25000
I12997
tp26
a(I26000
I13647
tp27
a(I27000
I14311
tp28
a(I28000
I14981
tp29
a(I29000
I15648
tp30
a(I30000
I16305
tp31
a(I31000
I16949
tp32
a(I32000
I17631
tp33
a(I33000
I18333
tp34
a(I34000
I19008
tp35
a(I35000
I19689
tp36
a(I36000
I20356
tp37
a(I37000
I21049
tp38
a(I38000
I21712
tp39
a(I39000
I22372
tp40
a(I40000
I23060
tp41
a(I41000
I23753
tp42
a(I42000
I24427
tp43
a(I43000
I25094
tp44
a(I44000
I25783
tp45
a(I45000
I26504
tp46
a(I46000
I27212
tp47
a(I47000
I27918
tp48
a(I48000
I28625
tp49
a(I49000
I29331
tp50
a(I50000
I30047
tp51
a(I51000
I30735
tp52
a(I52000
I31445
tp53
a(I53000
I32178
tp54
a(I54000
I32869
tp55
a(I55000
I33569
tp56
a(I56000
I34319
tp57
a(I57000
I35038
tp58
a(I58000
I35767
tp59
a(I59000
I36517
tp60
a(I60000
I37271
tp61
a(I61000
I38021
tp62
a(I62000
I38761
tp63
a(I63000
I39507
tp64
a(I64000
I40253
tp65
a(I65000
I40991
tp66
a(I66000
I41740
tp67
a(I67000
I42499
tp68
a(I68000
I43267
tp69
a(I69000
I43998
tp70
a(I70000
I44751
tp71
a(I71000
I45519
tp72
a(I72000
I46270
tp73
a(I73000
I47029
tp74
a(I74000
I47757
tp75
a(I75000
I48493
tp76
a(I76000
I49271
tp77
a(I77000
I50036
tp78
a(I78000
I50823
tp79
a(I79000
I51607
tp80
a(I80000
I52375
tp81
a(I81000
I53138
tp82
a(I82000
I53927
tp83
a(I83000
I54682
tp84
a(I84000
I55451
tp85
a(I85000
I56218
tp86
a(I86000
I56970
tp87
a(I87000
I57772
tp88
a(I88000
I58539
tp89
a(I89000
I59300
tp90
a(I90000
I60076
tp91
a(I91000
I60825
tp92
a(I92000
I61613
tp93
a(I93000
I62391
tp94
a(I94000
I63153
tp95
a(I95000
I63929
tp96
a(I96000
I64678
tp97
a(I97000
I65459
tp98
a(I98000
I66249
tp99
a(I99000
I67043
tp100
a(I100000
I67827
tp101
a(I101000
I68603
tp102
a(I102000
I69386
tp103
a(I103000
I70172
tp104
a(I104000
I70958
tp105
a(I105000
I71728
tp106
a(I106000
I72525
tp107
a(I107000
I73302
tp108
a(I108000
I74086
tp109
a(I109000
I74865
tp110
a(I110000
I75645
tp111
a(I111000
I76437
tp112
a(I112000
I77207
tp113
a(I113000
I77989
tp114
a(I114000
I78780
tp115
a(I115000
I79544
tp116
a(I116000
I80362
tp117
a(I117000
I81171
tp118
a(I118000
I81957
tp119
a(I119000
I82744
tp120
a(I120000
I83543
tp121
a(I121000
I84331
tp122
a(I122000
I85107
tp123
a(I123000
I85901
tp124
a(I124000
I86697
tp125
a(I125000
I87447
tp126
a(I126000
I88254
tp127
a(I127000
I89045
tp128
a(I128000
I89866
tp129
a(I129000
I90651
tp130
a(I130000
I91439
tp131
a(I131000
I92231
tp132
a(I132000
I93055
tp133
a(I133000
I93840
tp134
a(I134000
I94656
tp135
a(I135000
I95474
tp136
a(I136000
I96281
tp137
a(I137000
I97082
tp138
a(I138000
I97879
tp139
a(I139000
I98676
tp140
a(I140000
I99477
tp141
a(I141000
I100256
tp142
a(I142000
I101065
tp143
a(I143000
I101870
tp144
a(I144000
I102665
tp145
a(I145000
I103473
tp146
a(I146000
I104277
tp147
a(I147000
I105082
tp148
a(I148000
I105899
tp149
a(I149000
I106721
tp150
a(I150000
I107557
tp151
a(I151000
I108360
tp152
a(I152000
I109173
tp153
a(I153000
I109976
tp154
a(I154000
I110797
tp155
a(I155000
I111604
tp156
a(I156000
I112419
tp157
a(I157000
I113233
tp158
a(I158000
I114042
tp159
a(I159000
I114853
tp160
a(I160000
I115658
tp161
a(I161000
I116459
tp162
a(I162000
I117290
tp163
a(I163000
I118096
tp164
a(I164000
I118906
tp165
a(I165000
I119721
tp166
a(I166000
I120523
tp167
a(I167000
I121342
tp168
a(I168000
I122166
tp169
a(I169000
I122995
tp170
a(I170000
I123821
tp171
a(I171000
I124638
tp172
a(I172000
I125445
tp173
a(I173000
I126260
tp174
a(I174000
I127066
tp175
a(I175000
I127887
tp176
a(I176000
I128712
tp177
a(I177000
I129535
tp178
a(I178000
I130357
tp179
a(I179000
I131179
tp180
a(I180000
I131994
tp181
a(I181000
I132837
tp182
a(I182000
I133662
tp183
a(I183000
I134489
tp184
a(I184000
I135320
tp185
a(I185000
I136156
tp186
a(I186000
I136987
tp187
a(I187000
I137810
tp188
a(I188000
I138646
tp189
a(I189000
I139455
tp190
a(I190000
I140279
tp191
a(I191000
I141115
tp192
a(I192000
I141951
tp193
a(I193000
I142782
tp194
a(I194000
I143612
tp195
a(I195000
I144447
tp196
a(I196000
I145288
tp197
a(I197000
I146115
tp198
a(I198000
I146943
tp199
a(I199000
I147792
tp200
a(I200000
I148612
tp201
a(I201000
I149432
tp202
a(I202000
I150273
tp203
a(I203000
I151098
tp204
a(I204000
I151920
tp205
a(I205000
I152753
tp206
a(I206000
I153588
tp207
a(I207000
I154407
tp208
a(I208000
I155237
tp209
a(I209000
I156071
tp210
a(I210000
I156907
tp211
a(I211000
I157762
tp212
a(I212000
I158592
tp213
a(I213000
I159433
tp214
a(I214000
I160258
tp215
a(I215000
I161082
tp216
a(I216000
I161924
tp217
a(I217000
I162770
tp218
a(I218000
I163601
tp219
a(I219000
I164431
tp220
a(I220000
I165290
tp221
a(I221000
I166137
tp222
a(I222000
I166951
tp223
a(I223000
I167768
tp224
a(I224000
I168586
tp225
a(I225000
I169447
tp226
a(I226000
I170282
tp227
a(I227000
I171131
tp228
a(I228000
I171961
tp229
a(I229000
I172803
tp230
a(I230000
I173634
tp231
a(I231000
I174477
tp232
a(I232000
I175325
tp233
a(I233000
I176159
tp234
a(I234000
I176998
tp235
a(I235000
I177839
tp236
a(I236000
I178682
tp237
a(I237000
I179549
tp238
a(I238000
I180393
tp239
a(I239000
I181224
tp240
a(I240000
I182053
tp241
a(I241000
I182903
tp242
a(I242000
I183756
tp243
a(I243000
I184602
tp244
a(I244000
I185445
tp245
a(I245000
I186295
tp246
a(I246000
I187153
tp247
a(I247000
I188004
tp248
a(I248000
I188844
tp249
a(I249000
I189680
tp250
a(I250000
I190532
tp251
a(I251000
I191350
tp252
a(I252000
I192202
tp253
a(I253000
I193045
tp254
a(I254000
I193883
tp255
a(I255000
I194734
tp256
a(I256000
I195592
tp257
a(I257000
I196447
tp258
a(I258000
I197289
tp259
a(I259000
I198136
tp260
a(I260000
I198976
tp261
a(I261000
I199829
tp262
a(I262000
I200668
tp263
a(I263000
I201497
tp264
a(I264000
I202358
tp265
a(I265000
I203220
tp266
a(I266000
I204061
tp267
a(I267000
I204898
tp268
a(I268000
I205760
tp269
a(I269000
I206626
tp270
a(I270000
I207468
tp271
a(I271000
I208318
tp272
a(I272000
I209182
tp273
a(I273000
I210035
tp274
a(I274000
I210875
tp275
a(I275000
I211741
tp276
a(I276000
I212592
tp277
a(I277000
I213436
tp278
a(I278000
I214278
tp279
a(I279000
I215135
tp280
a(I280000
I215980
tp281
a(I281000
I216824
tp282
a(I282000
I217684
tp283
a(I283000
I218549
tp284
a(I284000
I219405
tp285
a(I285000
I220260
tp286
a(I286000
I221105
tp287
a(I287000
I221961
tp288
a(I288000
I222813
tp289
a(I289000
I223659
tp290
a(I290000
I224516
tp291
a(I291000
I225369
tp292
a(I292000
I226223
tp293
a(I293000
I227044
tp294
a(I294000
I227904
tp295
a(I295000
I228745
tp296
a(I296000
I229595
tp297
a(I297000
I230472
tp298
a(I298000
I231318
tp299
a(I299000
I232172
tp300
a(I300000
I233022
tp301
a(I301000
I233885
tp302
a(I302000
I234729
tp303
a(I303000
I235594
tp304
a(I304000
I236436
tp305
a(I305000
I237278
tp306
a(I306000
I238126
tp307
a(I307000
I238979
tp308
a(I308000
I239836
tp309
a(I309000
I240709
tp310
a(I310000
I241569
tp311
a(I311000
I242439
tp312
a(I312000
I243311
tp313
a(I313000
I244163
tp314
a(I314000
I245015
tp315
a(I315000
I245864
tp316
a(I316000
I246698
tp317
a(I317000
I247535
tp318
a(I318000
I248396
tp319
a(I319000
I249247
tp320
a(I320000
I250089
tp321
a(I321000
I250947
tp322
a(I322000
I251798
tp323
a(I323000
I252663
tp324
a(I324000
I253488
tp325
a(I325000
I254351
tp326
a(I326000
I255200
tp327
a(I327000
I256077
tp328
a(I328000
I256945
tp329
a(I329000
I257787
tp330
a(I330000
I258644
tp331
a(I331000
I259511
tp332
a(I332000
I260375
tp333
a(I333000
I261233
tp334
a(I334000
I262103
tp335
a(I335000
I262955
tp336
a(I336000
I263806
tp337
a(I337000
I264658
tp338
a(I338000
I265509
tp339
a(I339000
I266379
tp340
a(I340000
I267230
tp341
a(I341000
I268108
tp342
a(I342000
I268978
tp343
a(I343000
I269834
tp344
a(I344000
I270700
tp345
a(I345000
I271549
tp346
a(I346000
I272387
tp347
a(I347000
I273240
tp348
a(I348000
I274113
tp349
a(I349000
I274968
tp350
a(I350000
I275838
tp351
a(I351000
I276716
tp352
a(I352000
I277590
tp353
a(I353000
I278460
tp354
a(I354000
I279334
tp355
a(I355000
I280176
tp356
a(I356000
I281016
tp357
a(I357000
I281892
tp358
a(I358000
I282734
tp359
a(I359000
I283594
tp360
a(I360000
I284469
tp361
a(I361000
I285352
tp362
a(I362000
I286229
tp363
a(I363000
I287115
tp364
a(I364000
I287984
tp365
a(I365000
I288850
tp366
a(I366000
I289709
tp367
a(I367000
I290579
tp368
a(I368000
I291444
tp369
a(I369000
I292309
tp370
a(I370000
I293186
tp371
a(I371000
I294045
tp372
a(I372000
I294925
tp373
a(I373000
I295787
tp374
a(I374000
I296665
tp375
a(I375000
I297544
tp376
a(I376000
I298403
tp377
a(I377000
I299263
tp378
a(I378000
I300140
tp379
a(I379000
I301000
tp380
a(I380000
I301876
tp381
a(I381000
I302753
tp382
a(I382000
I303595
tp383
a(I383000
I304460
tp384
a(I384000
I305333
tp385
a(I385000
I306210
tp386
a(I386000
I307085
tp387
a(I387000
I307950
tp388
a(I388000
I308811
tp389
a(I389000
I309676
tp390
a(I390000
I310551
tp391
a(I391000
I311436
tp392
a(I392000
I312317
tp393
a(I393000
I313186
tp394
a(I394000
I314069
tp395
a(I395000
I314927
tp396
a(I396000
I315792
tp397
a(I397000
I316643
tp398
a(I398000
I317514
tp399
a(I399000
I318382
tp400
a(I400000
I319246
tp401
a(I401000
I320123
tp402
a(I402000
I321009
tp403
a(I403000
I321890
tp404
a(I404000
I322733
tp405
a(I405000
I323616
tp406
a(I406000
I324490
tp407
a(I407000
I325365
tp408
a(I408000
I326241
tp409
a(I409000
I327110
tp410
a(I410000
I327984
tp411
a(I411000
I328860
tp412
a(I412000
I329718
tp413
a(I413000
I330590
tp414
a(I414000
I331436
tp415
a(I415000
I332309
tp416
a(I416000
I333163
tp417
a(I417000
I334021
tp418
a(I418000
I334901
tp419
a(I419000
I335799
tp420
a(I420000
I336668
tp421
a(I421000
I337540
tp422
a(I422000
I338413
tp423
a(I423000
I339291
tp424
a(I424000
I340166
tp425
a(I425000
I341059
tp426
a(I426000
I341952
tp427
a(I427000
I342789
tp428
a(I428000
I343670
tp429
a(I429000
I344547
tp430
a(I430000
I345431
tp431
a(I431000
I346298
tp432
a(I432000
I347170
tp433
a(I433000
I348036
tp434
a(I434000
I348911
tp435
a(I435000
I349795
tp436
a(I436000
I350670
tp437
a(I437000
I351559
tp438
a(I438000
I352433
tp439
a(I439000
I353304
tp440
a(I440000
I354186
tp441
a(I441000
I355065
tp442
a(I442000
I355932
tp443
a(I443000
I356799
tp444
a(I444000
I357681
tp445
a(I445000
I358552
tp446
a(I446000
I359414
tp447
a(I447000
I360316
tp448
a(I448000
I361181
tp449
a(I449000
I362052
tp450
a(I450000
I362916
tp451
a(I451000
I363813
tp452
a(I452000
I364721
tp453
a(I453000
I365602
tp454
a(I454000
I366486
tp455
a(I455000
I367380
tp456
a(I456000
I368253
tp457
a(I457000
I369106
tp458
a(I458000
I369978
tp459
a(I459000
I370874
tp460
a(I460000
I371754
tp461
a(I461000
I372621
tp462
a(I462000
I373505
tp463
a(I463000
I374395
tp464
a(I464000
I375275
tp465
a(I465000
I376154
tp466
a(I466000
I377026
tp467
a(I467000
I377888
tp468
a(I468000
I378785
tp469
a(I469000
I379651
tp470
a(I470000
I380543
tp471
a(I471000
I381426
tp472
a(I472000
I382300
tp473
a(I473000
I383184
tp474
a(I474000
I384058
tp475
a(I475000
I384924
tp476
a(I476000
I385795
tp477
a(I477000
I386664
tp478
a(I478000
I387540
tp479
a(I479000
I388419
tp480
a(I480000
I389286
tp481
a(I481000
I390157
tp482
a(I482000
I391034
tp483
a(I483000
I391925
tp484
a(I484000
I392815
tp485
a(I485000
I393684
tp486
a(I486000
I394567
tp487
a(I487000
I395448
tp488
a(I488000
I396338
tp489
a(I489000
I397213
tp490
a(I490000
I398103
tp491
a(I491000
I398973
tp492
a(I492000
I399854
tp493
a(I493000
I400721
tp494
a(I494000
I401606
tp495
a(I495000
I402488
tp496
a(I496000
I403348
tp497
a(I497000
I404215
tp498
a(I498000
I405081
tp499
a(I499000
I405956
tp500
a(I500000
I406827
tp501
a.